; Function Attrs: nounwind uwtable
define hidden i32 @mbedtls_psa_cipher_set_iv(ptr noundef %0, ptr noundef %1, i64 noundef %2) local_unnamed_addr #2 {
  %4 = getelementptr inbounds nuw i8, ptr %0, i64 4
  %5 = load i8, ptr %4, align 4, !tbaa !17
  %6 = zext i8 %5 to i64
  %.not = icmp eq i64 %2, %6
  br i1 %.not, label %7, label %11

7:                                                ; preds = %3
  %8 = getelementptr inbounds nuw i8, ptr %0, i64 8
  %9 = tail call i32 @mbedtls_cipher_set_iv(ptr noundef nonnull %8, ptr noundef %1, i64 noundef %2) #8
  %10 = tail call i32 @mbedtls_to_psa_error(i32 noundef %9) #8
  br label %11

11:                                               ; preds = %3, %7
  %.0 = phi i32 [ %10, %7 ], [ -135, %3 ]
  ret i32 %.0
}